target datalayout = "e-m:e-p270:32:32-p271:32:32-p272:64:64-i64:64-i128:128-f80:128-n8:16:32:64-S128"
target triple = "x86_64-pc-linux-gnu"

%union.pthread_mutex_t = type { %struct.__pthread_mutex_s }
%struct.__pthread_mutex_s = type { i32, i32, i32, i32, i32, i16, i16, %struct.__pthread_internal_list }
%struct.__pthread_internal_list = type { ptr, ptr }
%struct.ccan_list_head = type { %struct.ccan_list_node }
%struct.ccan_list_node = type { ptr, ptr }
%struct.rb_ractor_struct = type { %struct.rb_ractor_pub, %struct.rb_ractor_sync, i64, %union.pthread_cond_t, %struct.anon.16, i64, i64, i64, i32, %struct.ccan_list_node, ptr, ptr, i64, i64, i64, i64, i64, i64, ptr }
%struct.rb_ractor_pub = type { i64, i32, %struct.rb_hook_list_struct }
%struct.rb_hook_list_struct = type { ptr, i32, i32, i8, i8 }
%struct.rb_ractor_sync = type { %union.pthread_mutex_t, i8, i8, %struct.rb_ractor_queue, %struct.rb_ractor_queue, %struct.rb_ractor_basket, %struct.ractor_wait }
%struct.rb_ractor_queue = type { ptr, i32, i32, i32, i32, i32 }
%struct.rb_ractor_basket = type { %union.anon.12, i64, %union.anon.13 }
%union.anon.12 = type { i32 }
%union.anon.13 = type { %struct.anon.14 }
%struct.anon.14 = type { i64, i8 }
%struct.ractor_wait = type { i32, i32, ptr }
%union.pthread_cond_t = type { %struct.__pthread_cond_s }
%struct.__pthread_cond_s = type { %union.__atomic_wide_counter, %union.__atomic_wide_counter, [2 x i32], [2 x i32], i32, i32, [2 x i32] }
%union.__atomic_wide_counter = type { i64 }
%struct.anon.16 = type { %struct.ccan_list_head, i32, i32, i32, %struct.rb_thread_sched, ptr, ptr }
%struct.rb_thread_sched = type { %union.pthread_mutex_t, ptr, i8, i8, i8, %struct.ccan_list_head, i32, %struct.ccan_list_node }
%struct.rb_vm_struct = type { i64, %struct.anon.0, ptr, i64, %struct.ccan_list_head, i32, i8, i64, ptr, [5 x i64], i64, i64, i64, i64, i64, i64, i64, i64, i64, ptr, ptr, ptr, %struct.anon.4, ptr, i32, %struct.ccan_list_head, %union.pthread_mutex_t, i64, i64, i64, i64, i32, %struct.anon.5, ptr, ptr, ptr, ptr, ptr, ptr, ptr, ptr, i64, [1023 x ptr], %struct.anon.6 }
%struct.anon.0 = type { %struct.ccan_list_head, i32, i32, ptr, ptr, %struct.anon.1, %struct.anon.3 }
%struct.anon.1 = type { %union.pthread_mutex_t, ptr, i32, %union.pthread_cond_t, i8 }
%struct.anon.3 = type { %union.pthread_mutex_t, ptr, i8, %union.pthread_cond_t, i32, i32, i32, i32, %struct.ccan_list_head, i32, %struct.ccan_list_head, %struct.ccan_list_head, %struct.ccan_list_head, i8, %union.pthread_cond_t, %union.pthread_cond_t, i8, i32, i32 }
%struct.anon.4 = type { [65 x i64] }
%struct.anon.5 = type { ptr, ptr }
%struct.anon.6 = type { i64, i64, i64, i64 }

@.str = private unnamed_addr constant [5 x i8] c"lock\00", align 1
@.str.1 = private unnamed_addr constant [19 x i8] c"pthread_mutex_lock\00", align 1
@.str.2 = private unnamed_addr constant [7 x i8] c"unlock\00", align 1
@.str.3 = private unnamed_addr constant [21 x i8] c"pthread_mutex_unlock\00", align 1
@.str.12 = private unnamed_addr constant [20 x i8] c"pthread_cond_signal\00", align 1
@.str.15 = private unnamed_addr constant [20 x i8] c"../thread_pthread.c\00", align 1

; Function Attrs: nounwind sspstrong uwtable
define internal void @ractor_sched_set_unlocked(ptr noundef %0, ptr noundef %1) #0 {
  %3 = alloca ptr, align 8
  %4 = alloca ptr, align 8
  store ptr %0, ptr %3, align 8, !tbaa !50
  store ptr %1, ptr %4, align 8, !tbaa !61
  ret void
}

; Function Attrs: nounwind sspstrong uwtable
define dso_local void @rb_native_cond_signal(ptr noundef %0) #0 {
  %2 = alloca ptr, align 8
  %3 = alloca i32, align 4
  store ptr %0, ptr %2, align 8, !tbaa !14
  call void @llvm.lifetime.start.p0(i64 4, ptr %3) #16
  br label %4

4:                                                ; preds = %7, %1
  %5 = load ptr, ptr %2, align 8, !tbaa !14
  %6 = call i32 @pthread_cond_signal(ptr noundef %5) #16
  store i32 %6, ptr %3, align 4, !tbaa !15
  br label %7

7:                                                ; preds = %4
  %8 = load i32, ptr %3, align 4, !tbaa !15
  %9 = icmp eq i32 %8, 11
  br i1 %9, label %4, label %10, !llvm.loop !19

10:                                               ; preds = %7
  %11 = load i32, ptr %3, align 4, !tbaa !15
  %12 = icmp ne i32 %11, 0
  br i1 %12, label %13, label %15

13:                                               ; preds = %10
  %14 = load i32, ptr %3, align 4, !tbaa !15
  call void @rb_bug_errno(ptr noundef @.str.12, i32 noundef %14) #35
  unreachable

15:                                               ; preds = %10
  call void @llvm.lifetime.end.p0(i64 4, ptr %3) #16
  ret void
}

; Function Attrs: nounwind sspstrong uwtable
define internal zeroext i1 @ractor_sched_barrier_completed_p(ptr noundef %0) #0 {
  %2 = alloca ptr, align 8
  store ptr %0, ptr %2, align 8, !tbaa !50
  %3 = load ptr, ptr %2, align 8, !tbaa !50
  %4 = getelementptr inbounds nuw %struct.rb_vm_struct, ptr %3, i32 0, i32 1
  %5 = getelementptr inbounds nuw %struct.anon.0, ptr %4, i32 0, i32 6
  %6 = getelementptr inbounds nuw %struct.anon.3, ptr %5, i32 0, i32 6
  %7 = load i32, ptr %6, align 8, !tbaa !133
  %8 = load ptr, ptr %2, align 8, !tbaa !50
  %9 = getelementptr inbounds nuw %struct.rb_vm_struct, ptr %8, i32 0, i32 1
  %10 = getelementptr inbounds nuw %struct.anon.0, ptr %9, i32 0, i32 6
  %11 = getelementptr inbounds nuw %struct.anon.3, ptr %10, i32 0, i32 17
  %12 = load i32, ptr %11, align 4, !tbaa !129
  %13 = sub i32 %7, %12
  %14 = icmp eq i32 %13, 1
  ret i1 %14
}

; Function Attrs: nounwind sspstrong uwtable
define internal void @ractor_sched_set_locked(ptr noundef %0, ptr noundef %1) #0 {
  %3 = alloca ptr, align 8
  %4 = alloca ptr, align 8
  store ptr %0, ptr %3, align 8, !tbaa !50
  store ptr %1, ptr %4, align 8, !tbaa !61
  ret void
}

; Function Attrs: nounwind sspstrong uwtable
define internal void @mutex_debug(ptr noundef %0, ptr noundef %1) #0 {
  %3 = alloca ptr, align 8
  %4 = alloca ptr, align 8
  store ptr %0, ptr %3, align 8, !tbaa !17
  store ptr %1, ptr %4, align 8, !tbaa !14
  ret void
}

; Function Attrs: nounwind sspstrong uwtable
define dso_local void @rb_native_mutex_lock(ptr noundef %0) #0 {
  %2 = alloca ptr, align 8
  %3 = alloca i32, align 4
  store ptr %0, ptr %2, align 8, !tbaa !14
  call void @llvm.lifetime.start.p0(i64 4, ptr %3) #16
  %4 = load ptr, ptr %2, align 8, !tbaa !14
  call void @mutex_debug(ptr noundef @.str, ptr noundef %4)
  %5 = load ptr, ptr %2, align 8, !tbaa !14
  %6 = call i32 @pthread_mutex_lock(ptr noundef %5) #16
  store i32 %6, ptr %3, align 4, !tbaa !15
  %7 = icmp ne i32 %6, 0
  br i1 %7, label %8, label %10

8:                                                ; preds = %1
  %9 = load i32, ptr %3, align 4, !tbaa !15
  call void @rb_bug_errno(ptr noundef @.str.1, i32 noundef %9) #35
  unreachable

10:                                               ; preds = %1
  call void @llvm.lifetime.end.p0(i64 4, ptr %3) #16
  ret void
}

; Function Attrs: nounwind sspstrong uwtable
define internal void @ractor_sched_unlock_(ptr noundef %0, ptr noundef %1, ptr noundef %2, i32 noundef %3) #0 {
  %5 = alloca ptr, align 8
  %6 = alloca ptr, align 8
  %7 = alloca ptr, align 8
  %8 = alloca i32, align 4
  store ptr %0, ptr %5, align 8, !tbaa !50
  store ptr %1, ptr %6, align 8, !tbaa !61
  store ptr %2, ptr %7, align 8, !tbaa !17
  store i32 %3, ptr %8, align 4, !tbaa !15
  %9 = load ptr, ptr %5, align 8, !tbaa !50
  %10 = load ptr, ptr %6, align 8, !tbaa !61
  call void @ractor_sched_set_unlocked(ptr noundef %9, ptr noundef %10)
  %11 = load ptr, ptr %5, align 8, !tbaa !50
  %12 = getelementptr inbounds nuw %struct.rb_vm_struct, ptr %11, i32 0, i32 1
  %13 = getelementptr inbounds nuw %struct.anon.0, ptr %12, i32 0, i32 6
  %14 = getelementptr inbounds nuw %struct.anon.3, ptr %13, i32 0, i32 0
  call void @rb_native_mutex_unlock(ptr noundef %14)
  ret void
}

; Function Attrs: nounwind sspstrong uwtable
define internal void @ractor_sched_barrier_join_signal_locked(ptr noundef %0) #0 {
  %2 = alloca ptr, align 8
  store ptr %0, ptr %2, align 8, !tbaa !50
  %3 = load ptr, ptr %2, align 8, !tbaa !50
  %4 = call zeroext i1 @ractor_sched_barrier_completed_p(ptr noundef %3)
  br i1 %4, label %5, label %10

5:                                                ; preds = %1
  %6 = load ptr, ptr %2, align 8, !tbaa !50
  %7 = getelementptr inbounds nuw %struct.rb_vm_struct, ptr %6, i32 0, i32 1
  %8 = getelementptr inbounds nuw %struct.anon.0, ptr %7, i32 0, i32 6
  %9 = getelementptr inbounds nuw %struct.anon.3, ptr %8, i32 0, i32 14
  call void @rb_native_cond_signal(ptr noundef %9)
  br label %10

10:                                               ; preds = %5, %1
  ret void
}

; Function Attrs: nounwind sspstrong uwtable
define internal void @ractor_sched_lock_(ptr noundef %0, ptr noundef %1, ptr noundef %2, i32 noundef %3) #0 {
  %5 = alloca ptr, align 8
  %6 = alloca ptr, align 8
  %7 = alloca ptr, align 8
  %8 = alloca i32, align 4
  store ptr %0, ptr %5, align 8, !tbaa !50
  store ptr %1, ptr %6, align 8, !tbaa !61
  store ptr %2, ptr %7, align 8, !tbaa !17
  store i32 %3, ptr %8, align 4, !tbaa !15
  %9 = load ptr, ptr %5, align 8, !tbaa !50
  %10 = getelementptr inbounds nuw %struct.rb_vm_struct, ptr %9, i32 0, i32 1
  %11 = getelementptr inbounds nuw %struct.anon.0, ptr %10, i32 0, i32 6
  %12 = getelementptr inbounds nuw %struct.anon.3, ptr %11, i32 0, i32 0
  call void @rb_native_mutex_lock(ptr noundef %12)
  %13 = load ptr, ptr %5, align 8, !tbaa !50
  %14 = load ptr, ptr %6, align 8, !tbaa !61
  call void @ractor_sched_set_locked(ptr noundef %13, ptr noundef %14)
  ret void
}

; Function Attrs: nounwind sspstrong uwtable
define dso_local void @rb_native_mutex_unlock(ptr noundef %0) #0 {
  %2 = alloca ptr, align 8
  %3 = alloca i32, align 4
  store ptr %0, ptr %2, align 8, !tbaa !14
  call void @llvm.lifetime.start.p0(i64 4, ptr %3) #16
  %4 = load ptr, ptr %2, align 8, !tbaa !14
  call void @mutex_debug(ptr noundef @.str.2, ptr noundef %4)
  %5 = load ptr, ptr %2, align 8, !tbaa !14
  %6 = call i32 @pthread_mutex_unlock(ptr noundef %5) #16
  store i32 %6, ptr %3, align 4, !tbaa !15
  %7 = icmp ne i32 %6, 0
  br i1 %7, label %8, label %10

8:                                                ; preds = %1
  %9 = load i32, ptr %3, align 4, !tbaa !15
  call void @rb_bug_errno(ptr noundef @.str.3, i32 noundef %9) #35
  unreachable

10:                                               ; preds = %1
  call void @llvm.lifetime.end.p0(i64 4, ptr %3) #16
  ret void
}

; Function Attrs: nounwind sspstrong uwtable
define hidden void @rb_ractor_sched_barrier_join(ptr noundef %0, ptr noundef %1) #0 {
  %3 = alloca ptr, align 8
  %4 = alloca ptr, align 8
  store ptr %0, ptr %3, align 8, !tbaa !50
  store ptr %1, ptr %4, align 8, !tbaa !61
  %5 = load ptr, ptr %3, align 8, !tbaa !50
  %6 = getelementptr inbounds nuw %struct.rb_vm_struct, ptr %5, i32 0, i32 1
  %7 = getelementptr inbounds nuw %struct.anon.0, ptr %6, i32 0, i32 5
  %8 = getelementptr inbounds nuw %struct.anon.1, ptr %7, i32 0, i32 0
  call void @rb_native_mutex_unlock(ptr noundef %8)
  %9 = load ptr, ptr %3, align 8, !tbaa !50
  %10 = load ptr, ptr %4, align 8, !tbaa !61
  call void @ractor_sched_lock_(ptr noundef %9, ptr noundef %10, ptr noundef @.str.15, i32 noundef 1486)
  %11 = load ptr, ptr %3, align 8, !tbaa !50
  %12 = getelementptr inbounds nuw %struct.rb_vm_struct, ptr %11, i32 0, i32 1
  %13 = getelementptr inbounds nuw %struct.anon.0, ptr %12, i32 0, i32 6
  %14 = getelementptr inbounds nuw %struct.anon.3, ptr %13, i32 0, i32 17
  %15 = load i32, ptr %14, align 4, !tbaa !129
  %16 = add i32 %15, 1
  store i32 %16, ptr %14, align 4, !tbaa !129
  %17 = load ptr, ptr %3, align 8, !tbaa !50
  call void @ractor_sched_barrier_join_signal_locked(ptr noundef %17)
  %18 = load ptr, ptr %3, align 8, !tbaa !50
  %19 = load ptr, ptr %4, align 8, !tbaa !61
  %20 = getelementptr inbounds nuw %struct.rb_ractor_struct, ptr %19, i32 0, i32 4
  %21 = getelementptr inbounds nuw %struct.anon.16, ptr %20, i32 0, i32 4
  %22 = getelementptr inbounds nuw %struct.rb_thread_sched, ptr %21, i32 0, i32 1
  %23 = load ptr, ptr %22, align 8, !tbaa !134
  call void @ractor_sched_barrier_join_wait_locked(ptr noundef %18, ptr noundef %23)
  %24 = load ptr, ptr %3, align 8, !tbaa !50
  %25 = load ptr, ptr %4, align 8, !tbaa !61
  call void @ractor_sched_unlock_(ptr noundef %24, ptr noundef %25, ptr noundef @.str.15, i32 noundef 1495)
  %26 = load ptr, ptr %3, align 8, !tbaa !50
  %27 = getelementptr inbounds nuw %struct.rb_vm_struct, ptr %26, i32 0, i32 1
  %28 = getelementptr inbounds nuw %struct.anon.0, ptr %27, i32 0, i32 5
  %29 = getelementptr inbounds nuw %struct.anon.1, ptr %28, i32 0, i32 0
  call void @rb_native_mutex_lock(ptr noundef %29)
  ret void
}