; Function Attrs: nounwind sspstrong uwtable
define hidden void @rb_ractor_sched_barrier_join(ptr noundef %0, ptr noundef readonly captures(none) %1) local_unnamed_addr #0 {
  %3 = getelementptr inbounds nuw i8, ptr %0, i64 48
  %4 = tail call i32 @pthread_mutex_unlock(ptr noundef nonnull %3) #17
  %.not.i = icmp eq i32 %4, 0
  br i1 %.not.i, label %rb_native_mutex_unlock.exit, label %5

5:                                                ; preds = %2
  tail call void @rb_bug_errno(ptr noundef nonnull @.str.3, i32 noundef %4) #38
  unreachable

rb_native_mutex_unlock.exit:                      ; preds = %2
  %6 = getelementptr inbounds nuw i8, ptr %0, i64 160
  %7 = tail call i32 @pthread_mutex_lock(ptr noundef nonnull %6) #17
  %.not.i.i = icmp eq i32 %7, 0
  br i1 %.not.i.i, label %ractor_sched_lock_.exit, label %8

8:                                                ; preds = %rb_native_mutex_unlock.exit
  tail call void @rb_bug_errno(ptr noundef nonnull @.str.1, i32 noundef %7) #38
  unreachable

ractor_sched_lock_.exit:                          ; preds = %rb_native_mutex_unlock.exit
  %9 = getelementptr inbounds nuw i8, ptr %0, i64 460
  %10 = load i32, ptr %9, align 4, !tbaa !123
  %11 = add i32 %10, 1
  store i32 %11, ptr %9, align 4, !tbaa !123
  %12 = getelementptr i8, ptr %0, i64 272
  %.val.i = load i32, ptr %12, align 8, !tbaa !122
  %13 = sub i32 %.val.i, %11
  %14 = icmp eq i32 %13, 1
  br i1 %14, label %15, label %ractor_sched_barrier_join_signal_locked.exit

15:                                               ; preds = %ractor_sched_lock_.exit
  %16 = getelementptr inbounds nuw i8, ptr %0, i64 360
  br label %17

17:                                               ; preds = %17, %15
  %18 = tail call i32 @pthread_cond_signal(ptr noundef nonnull %16) #17
  switch i32 %18, label %19 [
    i32 11, label %17
    i32 0, label %ractor_sched_barrier_join_signal_locked.exit
  ]

19:                                               ; preds = %17
  tail call void @rb_bug_errno(ptr noundef nonnull @.str.12, i32 noundef %18) #38
  unreachable

ractor_sched_barrier_join_signal_locked.exit:     ; preds = %17, %ractor_sched_lock_.exit
  %20 = getelementptr inbounds nuw i8, ptr %1, i64 328
  %21 = load ptr, ptr %20, align 8, !tbaa !126
  tail call fastcc void @ractor_sched_barrier_join_wait_locked(ptr noundef nonnull %0, ptr noundef %21)
  %22 = tail call i32 @pthread_mutex_unlock(ptr noundef nonnull %6) #17
  %.not.i.i10 = icmp eq i32 %22, 0
  br i1 %.not.i.i10, label %ractor_sched_unlock_.exit, label %23

23:                                               ; preds = %ractor_sched_barrier_join_signal_locked.exit
  tail call void @rb_bug_errno(ptr noundef nonnull @.str.3, i32 noundef %22) #38
  unreachable

ractor_sched_unlock_.exit:                        ; preds = %ractor_sched_barrier_join_signal_locked.exit
  %24 = tail call i32 @pthread_mutex_lock(ptr noundef nonnull %3) #17
  %.not.i11 = icmp eq i32 %24, 0
  br i1 %.not.i11, label %rb_native_mutex_lock.exit, label %25

25:                                               ; preds = %ractor_sched_unlock_.exit
  tail call void @rb_bug_errno(ptr noundef nonnull @.str.1, i32 noundef %24) #38
  unreachable

rb_native_mutex_lock.exit:                        ; preds = %ractor_sched_unlock_.exit
  ret void
}